target datalayout = "e-m:e-p270:32:32-p271:32:32-p272:64:64-i64:64-i128:128-f80:128-n8:16:32:64-S128"
target triple = "x86_64-pc-linux-gnu"

%struct.H5PB_t = type { i64, i64, i32, i32, i32, i32, i32, i32, ptr, ptr, i64, ptr, ptr, ptr, [2 x i32], [2 x i32], [2 x i32], [2 x i32], [2 x i32] }
%struct.H5PB_entry_t = type { ptr, i64, i32, i8, ptr, ptr }
%struct.H5PB_ud1_t = type { ptr, i8 }

@H5PB_init_g = global i8 0, align 1
@H5_libterm_g = external global i8, align 1
@H5_H5PB_entry_t_reg_free_list = internal global { i8, [3 x i8], i32, i32, [4 x i8], ptr, i64, ptr } { i8 0, [3 x i8] zeroinitializer, i32 0, i32 0, [4 x i8] zeroinitializer, ptr @.str.36, i64 40, ptr null }, align 8

; Function Attrs: nounwind uwtable
define internal i32 @H5PB__dest_cb(ptr noundef %0, ptr noundef %1, ptr noundef %2) #0 {
  %4 = alloca ptr, align 8
  %5 = alloca ptr, align 8
  %6 = alloca ptr, align 8
  %7 = alloca ptr, align 8
  %8 = alloca ptr, align 8
  store ptr %0, ptr %4, align 8, !tbaa !55
  store ptr %1, ptr %5, align 8, !tbaa !55
  store ptr %2, ptr %6, align 8, !tbaa !55
  call void @llvm.lifetime.start.p0(i64 8, ptr %7) #6
  %9 = load ptr, ptr %4, align 8, !tbaa !55
  store ptr %9, ptr %7, align 8, !tbaa !56
  call void @llvm.lifetime.start.p0(i64 8, ptr %8) #6
  %10 = load ptr, ptr %6, align 8, !tbaa !55
  store ptr %10, ptr %8, align 8, !tbaa !55
  %11 = load i8, ptr @H5PB_init_g, align 1, !tbaa !8, !range !10, !noundef !11
  %12 = trunc i8 %11 to i1
  br i1 %12, label %17, label %13

13:                                               ; preds = %3
  %14 = load i8, ptr @H5_libterm_g, align 1, !tbaa !8, !range !10, !noundef !11
  %15 = trunc i8 %14 to i1
  %16 = xor i1 %15, true
  br label %17

17:                                               ; preds = %13, %3
  %18 = phi i1 [ true, %3 ], [ %16, %13 ]
  %19 = xor i1 %18, true
  %20 = xor i1 %19, true
  %21 = zext i1 %20 to i32
  %22 = sext i32 %21 to i64
  %23 = call i64 @llvm.expect.i64(i64 %22, i64 1)
  %24 = icmp ne i64 %23, 0
  br i1 %24, label %25, label %131

25:                                               ; preds = %17
  %26 = load ptr, ptr %8, align 8, !tbaa !55
  %27 = getelementptr inbounds nuw %struct.H5PB_ud1_t, ptr %26, i32 0, i32 1
  %28 = load i8, ptr %27, align 8, !tbaa !61, !range !10, !noundef !11
  %29 = trunc i8 %28 to i1
  br i1 %29, label %30, label %128

30:                                               ; preds = %25
  %31 = load ptr, ptr %8, align 8, !tbaa !55
  %32 = getelementptr inbounds nuw %struct.H5PB_ud1_t, ptr %31, i32 0, i32 0
  %33 = load ptr, ptr %32, align 8, !tbaa !59
  %34 = getelementptr inbounds nuw %struct.H5PB_t, ptr %33, i32 0, i32 11
  %35 = load ptr, ptr %34, align 8, !tbaa !62
  %36 = load ptr, ptr %7, align 8, !tbaa !56
  %37 = icmp eq ptr %35, %36
  br i1 %37, label %38, label %60

38:                                               ; preds = %30
  %39 = load ptr, ptr %7, align 8, !tbaa !56
  %40 = getelementptr inbounds nuw %struct.H5PB_entry_t, ptr %39, i32 0, i32 4
  %41 = load ptr, ptr %40, align 8, !tbaa !63
  %42 = load ptr, ptr %8, align 8, !tbaa !55
  %43 = getelementptr inbounds nuw %struct.H5PB_ud1_t, ptr %42, i32 0, i32 0
  %44 = load ptr, ptr %43, align 8, !tbaa !59
  %45 = getelementptr inbounds nuw %struct.H5PB_t, ptr %44, i32 0, i32 11
  store ptr %41, ptr %45, align 8, !tbaa !62
  %46 = load ptr, ptr %8, align 8, !tbaa !55
  %47 = getelementptr inbounds nuw %struct.H5PB_ud1_t, ptr %46, i32 0, i32 0
  %48 = load ptr, ptr %47, align 8, !tbaa !59
  %49 = getelementptr inbounds nuw %struct.H5PB_t, ptr %48, i32 0, i32 11
  %50 = load ptr, ptr %49, align 8, !tbaa !62
  %51 = icmp ne ptr %50, null
  br i1 %51, label %52, label %59

52:                                               ; preds = %38
  %53 = load ptr, ptr %8, align 8, !tbaa !55
  %54 = getelementptr inbounds nuw %struct.H5PB_ud1_t, ptr %53, i32 0, i32 0
  %55 = load ptr, ptr %54, align 8, !tbaa !59
  %56 = getelementptr inbounds nuw %struct.H5PB_t, ptr %55, i32 0, i32 11
  %57 = load ptr, ptr %56, align 8, !tbaa !62
  %58 = getelementptr inbounds nuw %struct.H5PB_entry_t, ptr %57, i32 0, i32 5
  store ptr null, ptr %58, align 8, !tbaa !64
  br label %59

59:                                               ; preds = %52, %38
  br label %68

60:                                               ; preds = %30
  %61 = load ptr, ptr %7, align 8, !tbaa !56
  %62 = getelementptr inbounds nuw %struct.H5PB_entry_t, ptr %61, i32 0, i32 4
  %63 = load ptr, ptr %62, align 8, !tbaa !63
  %64 = load ptr, ptr %7, align 8, !tbaa !56
  %65 = getelementptr inbounds nuw %struct.H5PB_entry_t, ptr %64, i32 0, i32 5
  %66 = load ptr, ptr %65, align 8, !tbaa !64
  %67 = getelementptr inbounds nuw %struct.H5PB_entry_t, ptr %66, i32 0, i32 4
  store ptr %63, ptr %67, align 8, !tbaa !63
  br label %68

68:                                               ; preds = %60, %59
  %69 = load ptr, ptr %8, align 8, !tbaa !55
  %70 = getelementptr inbounds nuw %struct.H5PB_ud1_t, ptr %69, i32 0, i32 0
  %71 = load ptr, ptr %70, align 8, !tbaa !59
  %72 = getelementptr inbounds nuw %struct.H5PB_t, ptr %71, i32 0, i32 12
  %73 = load ptr, ptr %72, align 8, !tbaa !65
  %74 = load ptr, ptr %7, align 8, !tbaa !56
  %75 = icmp eq ptr %73, %74
  br i1 %75, label %76, label %98

76:                                               ; preds = %68
  %77 = load ptr, ptr %7, align 8, !tbaa !56
  %78 = getelementptr inbounds nuw %struct.H5PB_entry_t, ptr %77, i32 0, i32 5
  %79 = load ptr, ptr %78, align 8, !tbaa !64
  %80 = load ptr, ptr %8, align 8, !tbaa !55
  %81 = getelementptr inbounds nuw %struct.H5PB_ud1_t, ptr %80, i32 0, i32 0
  %82 = load ptr, ptr %81, align 8, !tbaa !59
  %83 = getelementptr inbounds nuw %struct.H5PB_t, ptr %82, i32 0, i32 12
  store ptr %79, ptr %83, align 8, !tbaa !65
  %84 = load ptr, ptr %8, align 8, !tbaa !55
  %85 = getelementptr inbounds nuw %struct.H5PB_ud1_t, ptr %84, i32 0, i32 0
  %86 = load ptr, ptr %85, align 8, !tbaa !59
  %87 = getelementptr inbounds nuw %struct.H5PB_t, ptr %86, i32 0, i32 12
  %88 = load ptr, ptr %87, align 8, !tbaa !65
  %89 = icmp ne ptr %88, null
  br i1 %89, label %90, label %97

90:                                               ; preds = %76
  %91 = load ptr, ptr %8, align 8, !tbaa !55
  %92 = getelementptr inbounds nuw %struct.H5PB_ud1_t, ptr %91, i32 0, i32 0
  %93 = load ptr, ptr %92, align 8, !tbaa !59
  %94 = getelementptr inbounds nuw %struct.H5PB_t, ptr %93, i32 0, i32 12
  %95 = load ptr, ptr %94, align 8, !tbaa !65
  %96 = getelementptr inbounds nuw %struct.H5PB_entry_t, ptr %95, i32 0, i32 4
  store ptr null, ptr %96, align 8, !tbaa !63
  br label %97

97:                                               ; preds = %90, %76
  br label %106

98:                                               ; preds = %68
  %99 = load ptr, ptr %7, align 8, !tbaa !56
  %100 = getelementptr inbounds nuw %struct.H5PB_entry_t, ptr %99, i32 0, i32 5
  %101 = load ptr, ptr %100, align 8, !tbaa !64
  %102 = load ptr, ptr %7, align 8, !tbaa !56
  %103 = getelementptr inbounds nuw %struct.H5PB_entry_t, ptr %102, i32 0, i32 4
  %104 = load ptr, ptr %103, align 8, !tbaa !63
  %105 = getelementptr inbounds nuw %struct.H5PB_entry_t, ptr %104, i32 0, i32 5
  store ptr %101, ptr %105, align 8, !tbaa !64
  br label %106

106:                                              ; preds = %98, %97
  %107 = load ptr, ptr %7, align 8, !tbaa !56
  %108 = getelementptr inbounds nuw %struct.H5PB_entry_t, ptr %107, i32 0, i32 4
  store ptr null, ptr %108, align 8, !tbaa !63
  %109 = load ptr, ptr %7, align 8, !tbaa !56
  %110 = getelementptr inbounds nuw %struct.H5PB_entry_t, ptr %109, i32 0, i32 5
  store ptr null, ptr %110, align 8, !tbaa !64
  %111 = load ptr, ptr %8, align 8, !tbaa !55
  %112 = getelementptr inbounds nuw %struct.H5PB_ud1_t, ptr %111, i32 0, i32 0
  %113 = load ptr, ptr %112, align 8, !tbaa !59
  %114 = getelementptr inbounds nuw %struct.H5PB_t, ptr %113, i32 0, i32 10
  %115 = load i64, ptr %114, align 8, !tbaa !66
  %116 = add i64 %115, -1
  store i64 %116, ptr %114, align 8, !tbaa !66
  %117 = load ptr, ptr %8, align 8, !tbaa !55
  %118 = getelementptr inbounds nuw %struct.H5PB_ud1_t, ptr %117, i32 0, i32 0
  %119 = load ptr, ptr %118, align 8, !tbaa !59
  %120 = getelementptr inbounds nuw %struct.H5PB_t, ptr %119, i32 0, i32 13
  %121 = load ptr, ptr %120, align 8, !tbaa !53
  %122 = load ptr, ptr %7, align 8, !tbaa !56
  %123 = getelementptr inbounds nuw %struct.H5PB_entry_t, ptr %122, i32 0, i32 0
  %124 = load ptr, ptr %123, align 8, !tbaa !67
  %125 = call ptr @H5FL_fac_free(ptr noundef %121, ptr noundef %124)
  %126 = load ptr, ptr %7, align 8, !tbaa !56
  %127 = getelementptr inbounds nuw %struct.H5PB_entry_t, ptr %126, i32 0, i32 0
  store ptr %125, ptr %127, align 8, !tbaa !67
  br label %128

128:                                              ; preds = %106, %25
  %129 = load ptr, ptr %7, align 8, !tbaa !56
  %130 = call ptr @H5FL_reg_free(ptr noundef @H5_H5PB_entry_t_reg_free_list, ptr noundef %129)
  store ptr %130, ptr %7, align 8, !tbaa !56
  br label %131

131:                                              ; preds = %128, %17
  call void @llvm.lifetime.end.p0(i64 8, ptr %8) #6
  call void @llvm.lifetime.end.p0(i64 8, ptr %7) #6
  ret i32 0
}