; Function Attrs: nounwind uwtable
define internal noundef i32 @H5PB__dest_cb(ptr noundef %0, ptr readnone captures(none) %1, ptr noundef readonly captures(none) %2) #4 {
  %4 = load i8, ptr @H5PB_init_g, align 1, !tbaa !3, !range !7, !noundef !8
  %5 = trunc nuw i8 %4 to i1
  %6 = load i8, ptr @H5_libterm_g, align 1, !range !7
  %7 = trunc nuw i8 %6 to i1
  %8 = xor i1 %7, true
  %9 = select i1 %5, i1 true, i1 %8
  br i1 %9, label %10, label %51, !prof !9

10:                                               ; preds = %3
  %11 = getelementptr inbounds nuw i8, ptr %2, i64 8
  %12 = load i8, ptr %11, align 8, !tbaa !56, !range !7, !noundef !8
  %13 = trunc nuw i8 %12 to i1
  br i1 %13, label %14, label %49

14:                                               ; preds = %10
  %15 = load ptr, ptr %2, align 8, !tbaa !54
  %16 = getelementptr inbounds nuw i8, ptr %15, i64 64
  %17 = load ptr, ptr %16, align 8, !tbaa !57
  %18 = icmp eq ptr %17, %0
  %19 = getelementptr inbounds nuw i8, ptr %0, i64 24
  %20 = load ptr, ptr %19, align 8, !tbaa !58
  br i1 %18, label %21, label %24

21:                                               ; preds = %14
  store ptr %20, ptr %16, align 8, !tbaa !57
  %.not = icmp eq ptr %20, null
  br i1 %.not, label %28, label %22

22:                                               ; preds = %21
  %23 = getelementptr inbounds nuw i8, ptr %20, i64 32
  store ptr null, ptr %23, align 8, !tbaa !59
  br label %28

24:                                               ; preds = %14
  %25 = getelementptr inbounds nuw i8, ptr %0, i64 32
  %26 = load ptr, ptr %25, align 8, !tbaa !59
  %27 = getelementptr inbounds nuw i8, ptr %26, i64 24
  store ptr %20, ptr %27, align 8, !tbaa !58
  br label %28

28:                                               ; preds = %21, %22, %24
  %29 = phi ptr [ null, %21 ], [ %20, %22 ], [ %20, %24 ]
  %30 = getelementptr inbounds nuw i8, ptr %15, i64 72
  %31 = load ptr, ptr %30, align 8, !tbaa !60
  %32 = icmp eq ptr %31, %0
  %33 = getelementptr inbounds nuw i8, ptr %0, i64 32
  %34 = load ptr, ptr %33, align 8, !tbaa !59
  br i1 %32, label %35, label %38

35:                                               ; preds = %28
  store ptr %34, ptr %30, align 8, !tbaa !60
  %.not28 = icmp eq ptr %34, null
  br i1 %.not28, label %40, label %36

36:                                               ; preds = %35
  %37 = getelementptr inbounds nuw i8, ptr %34, i64 24
  store ptr null, ptr %37, align 8, !tbaa !58
  br label %40

38:                                               ; preds = %28
  %39 = getelementptr inbounds nuw i8, ptr %29, i64 32
  store ptr %34, ptr %39, align 8, !tbaa !59
  br label %40

40:                                               ; preds = %35, %36, %38
  %41 = getelementptr inbounds nuw i8, ptr %0, i64 24
  %42 = getelementptr inbounds nuw i8, ptr %15, i64 56
  tail call void @llvm.memset.p0.i64(ptr noundef nonnull align 8 dereferenceable(16) %41, i8 0, i64 16, i1 false)
  %43 = load i64, ptr %42, align 8, !tbaa !61
  %44 = add i64 %43, -1
  store i64 %44, ptr %42, align 8, !tbaa !61
  %45 = getelementptr inbounds nuw i8, ptr %15, i64 80
  %46 = load ptr, ptr %45, align 8, !tbaa !50
  %47 = load ptr, ptr %0, align 8, !tbaa !62
  %48 = tail call ptr @H5FL_fac_free(ptr noundef %46, ptr noundef %47) #10
  store ptr %48, ptr %0, align 8, !tbaa !62
  br label %49

49:                                               ; preds = %40, %10
  %50 = tail call ptr @H5FL_reg_free(ptr noundef nonnull @H5_H5PB_entry_t_reg_free_list, ptr noundef %0) #10
  br label %51

51:                                               ; preds = %49, %3
  ret i32 0
}